target datalayout = "e-m:e-p270:32:32-p271:32:32-p272:64:64-i64:64-i128:128-f80:128-n8:16:32:64-S128"
target triple = "x86_64-pc-linux-gnu"

%struct.curl_trc_feat = type { ptr, i32 }
%struct.Curl_ssl_session = type { ptr, i64, i64, i32, ptr, i64, ptr, i64, %struct.Curl_llist_node }
%struct.Curl_llist_node = type { ptr, ptr, ptr, ptr }
%struct.Curl_ssl_scache = type { ptr, i64, i32, i64 }
%struct.Curl_ssl_scache_peer = type { ptr, ptr, ptr, ptr, %struct.Curl_llist, ptr, ptr, [32 x i8], [32 x i8], i64, i64, i8 }
%struct.Curl_llist = type { ptr, ptr, ptr, i64 }
%struct.Curl_easy = type { i32, i64, i64, ptr, %struct.Curl_llist_node, %struct.Curl_llist_node, i32, i32, %struct.Curl_message, %struct.easy_pollset, %struct.Names, ptr, ptr, ptr, ptr, %struct.SingleRequest, %struct.UserDefined, ptr, ptr, ptr, %struct.Progress, %struct.UrlState, ptr, %struct.PureInfo, %struct.curl_tlssessioninfo }
%struct.Curl_message = type { %struct.Curl_llist_node, %struct.CURLMsg }
%struct.CURLMsg = type { i32, ptr, %union.anon }
%union.anon = type { ptr }
%struct.easy_pollset = type { [5 x i32], i32, [5 x i8] }
%struct.Names = type { ptr, i32 }
%struct.SingleRequest = type <{ i64, i64, i64, i64, %struct.curltime, i32, i32, i32, i32, i64, i32, i32, i8, i8, [2 x i8], i32, ptr, ptr, %struct.bufq, i64, i64, ptr, ptr, %union.anon.0, ptr, i8, i32, [3 x i8] }>
%struct.curltime = type { i64, i32 }
%struct.bufq = type { ptr, ptr, ptr, ptr, i64, i64, i64, i32 }
%union.anon.0 = type { ptr }
%struct.UserDefined = type <{ ptr, ptr, ptr, ptr, ptr, ptr, i64, i64, i64, ptr, ptr, i64, ptr, ptr, ptr, ptr, ptr, ptr, ptr, ptr, ptr, ptr, ptr, ptr, ptr, ptr, ptr, ptr, ptr, ptr, ptr, ptr, ptr, ptr, ptr, i64, i64, i64, i64, i64, i64, i64, i64, i64, ptr, ptr, %struct.curl_mimepart, ptr, ptr, ptr, i64, %struct.ssl_config_data, %struct.ssl_config_data, ptr, i16, i8, i8, %struct.ssl_general_config, i32, i32, i32, [4 x i8], ptr, ptr, i64, i32, i8, i8, i8, i8, ptr, ptr, ptr, i32, [4 x i8], [74 x ptr], [8 x ptr], i32, i32, i32, [4 x i8], ptr, i32, [4 x i8], ptr, ptr, ptr, ptr, ptr, i32, i32, i32, i32, i32, i32, i32, i32, i64, ptr, ptr, i64, ptr, i64, ptr, ptr, ptr, ptr, i32, i16, i16, i16, i8, i8, i8, i8, i8, i8, i8, i8, i64, [6 x i8] }>
%struct.curl_mimepart = type { ptr, ptr, i32, i32, ptr, ptr, ptr, ptr, ptr, ptr, ptr, ptr, ptr, ptr, ptr, i64, %struct.mime_state, ptr, %struct.mime_encoder_state, i64 }
%struct.mime_state = type { i32, ptr, i64 }
%struct.mime_encoder_state = type { i64, i64, i64, [256 x i8] }
%struct.ssl_config_data = type { %struct.ssl_primary_config, i64, ptr, ptr, ptr, ptr, ptr, ptr, ptr, i16 }
%struct.ssl_primary_config = type { ptr, ptr, ptr, ptr, ptr, ptr, ptr, ptr, ptr, ptr, ptr, ptr, ptr, ptr, i8, i32, i8, i8 }
%struct.ssl_general_config = type { i32 }
%struct.Progress = type { i64, %struct.pgrs_dir, %struct.pgrs_dir, i64, i64, i32, i32, i64, i64, i64, i64, i64, i64, i64, i64, i64, %struct.curltime, %struct.curltime, %struct.curltime, %struct.curltime, %struct.curltime, [6 x i64], [6 x %struct.curltime], i32, i8 }
%struct.pgrs_dir = type { i64, i64, i64, %struct.pgrs_measure }
%struct.pgrs_measure = type { %struct.curltime, i64 }
%struct.UrlState = type { %struct.curltime, i64, i64, %struct.dynbuf, ptr, i64, ptr, i32, i32, i32, ptr, i32, i64, i32, ptr, %struct.digestdata, %struct.digestdata, %struct.auth, %struct.auth, %struct.Curl_async, ptr, i8, %struct.curltime, %struct.Curl_tree, %struct.Curl_llist, [15 x %struct.time_node], ptr, ptr, i64, i64, i64, i64, [32 x i8], i64, ptr, ptr, ptr, %struct.urlpieces, ptr, ptr, ptr, ptr, ptr, i64, %struct.dynbuf, %struct.Curl_llist, [2 x %struct.curl_header], ptr, i32, ptr, ptr, %struct.store_netrc, %struct.dynamically_allocated_data, i8, i8, i8, i8, i32 }
%struct.digestdata = type { ptr, ptr, ptr, ptr, ptr, ptr, i32, i8, i8 }
%struct.auth = type { i64, i64, i64, i8 }
%struct.Curl_async = type { ptr, ptr, ptr, ptr, i32, i32, i8 }
%struct.Curl_tree = type { ptr, ptr, ptr, ptr, %struct.curltime, ptr }
%struct.time_node = type { %struct.Curl_llist_node, %struct.curltime, i32 }
%struct.urlpieces = type { ptr, ptr, ptr, ptr, ptr, ptr, ptr, ptr }
%struct.dynbuf = type { ptr, i64, i64, i64 }
%struct.curl_header = type { ptr, ptr, i64, i64, i32, ptr }
%struct.store_netrc = type { %struct.dynbuf, ptr, i8 }
%struct.dynamically_allocated_data = type { ptr, ptr, ptr, ptr, ptr, ptr, ptr, ptr, ptr, ptr, ptr, ptr, ptr, ptr }
%struct.PureInfo = type { i32, i32, i32, i64, i64, i64, i64, i64, i64, i64, ptr, ptr, i64, i32, %struct.ip_quadruple, i32, ptr, i32, %struct.curl_certinfo, i32, i8 }
%struct.ip_quadruple = type { [46 x i8], [46 x i8], i32, i32 }
%struct.curl_certinfo = type { i32, ptr }
%struct.curl_tlssessioninfo = type { i32, ptr }
%struct.Curl_share = type { i32, i32, i32, ptr, ptr, ptr, %struct.cpool, %struct.Curl_hash, ptr, %struct.PslCache, ptr, ptr }
%struct.cpool = type { %struct.Curl_hash, i64, i64, i64, %struct.curltime, %struct.Curl_llist, ptr, ptr, ptr, ptr, i8 }
%struct.Curl_hash = type { ptr, ptr, ptr, ptr, i64, i64 }
%struct.PslCache = type { ptr, i64, i8 }

@Curl_trc_feat_ssls = external global %struct.curl_trc_feat, align 8
@.str.26 = private unnamed_addr constant [90 x i8] c"took session for %s [proto=0x%x, alpn=%s, earlydata=%zu, quic_tp=%s], %zu sessions remain\00", align 1
@.str.27 = private unnamed_addr constant [4 x i8] c"yes\00", align 1
@.str.28 = private unnamed_addr constant [3 x i8] c"no\00", align 1
@.str.29 = private unnamed_addr constant [25 x i8] c"no cached session for %s\00", align 1

; Function Attrs: nounwind uwtable
define hidden void @Curl_ssl_scache_unlock(ptr noundef %0) #0 {
  %2 = alloca ptr, align 8
  store ptr %0, ptr %2, align 8, !tbaa !53
  %3 = load ptr, ptr %2, align 8, !tbaa !53
  %4 = getelementptr inbounds nuw %struct.Curl_easy, ptr %3, i32 0, i32 13
  %5 = load ptr, ptr %4, align 8, !tbaa !55
  %6 = icmp ne ptr %5, null
  br i1 %6, label %7, label %18

7:                                                ; preds = %1
  %8 = load ptr, ptr %2, align 8, !tbaa !53
  %9 = getelementptr inbounds nuw %struct.Curl_easy, ptr %8, i32 0, i32 13
  %10 = load ptr, ptr %9, align 8, !tbaa !55
  %11 = getelementptr inbounds nuw %struct.Curl_share, ptr %10, i32 0, i32 1
  %12 = load i32, ptr %11, align 4, !tbaa !116
  %13 = and i32 %12, 16
  %14 = icmp ne i32 %13, 0
  br i1 %14, label %15, label %18

15:                                               ; preds = %7
  %16 = load ptr, ptr %2, align 8, !tbaa !53
  %17 = call i32 @Curl_share_unlock(ptr noundef %16, i32 noundef 4)
  br label %18

18:                                               ; preds = %15, %7, %1
  ret void
}

; Function Attrs: nounwind uwtable
define hidden void @Curl_ssl_scache_lock(ptr noundef %0) #0 {
  %2 = alloca ptr, align 8
  store ptr %0, ptr %2, align 8, !tbaa !53
  %3 = load ptr, ptr %2, align 8, !tbaa !53
  %4 = getelementptr inbounds nuw %struct.Curl_easy, ptr %3, i32 0, i32 13
  %5 = load ptr, ptr %4, align 8, !tbaa !55
  %6 = icmp ne ptr %5, null
  br i1 %6, label %7, label %18

7:                                                ; preds = %1
  %8 = load ptr, ptr %2, align 8, !tbaa !53
  %9 = getelementptr inbounds nuw %struct.Curl_easy, ptr %8, i32 0, i32 13
  %10 = load ptr, ptr %9, align 8, !tbaa !55
  %11 = getelementptr inbounds nuw %struct.Curl_share, ptr %10, i32 0, i32 1
  %12 = load i32, ptr %11, align 4, !tbaa !116
  %13 = and i32 %12, 16
  %14 = icmp ne i32 %13, 0
  br i1 %14, label %15, label %18

15:                                               ; preds = %7
  %16 = load ptr, ptr %2, align 8, !tbaa !53
  %17 = call i32 @Curl_share_lock(ptr noundef %16, i32 noundef 4, i32 noundef 2)
  br label %18

18:                                               ; preds = %15, %7, %1
  ret void
}

; Function Attrs: nounwind uwtable
define hidden i32 @Curl_ssl_scache_take(ptr noundef %0, ptr noundef %1, ptr noundef %2, ptr noundef %3) #0 {
  %5 = alloca i32, align 4
  %6 = alloca ptr, align 8
  %7 = alloca ptr, align 8
  %8 = alloca ptr, align 8
  %9 = alloca ptr, align 8
  %10 = alloca ptr, align 8
  %11 = alloca ptr, align 8
  %12 = alloca ptr, align 8
  %13 = alloca ptr, align 8
  %14 = alloca ptr, align 8
  %15 = alloca i32, align 4
  %16 = alloca i32, align 4
  store ptr %0, ptr %6, align 8, !tbaa !123
  store ptr %1, ptr %7, align 8, !tbaa !53
  store ptr %2, ptr %8, align 8, !tbaa !3
  store ptr %3, ptr %9, align 8, !tbaa !12
  call void @llvm.lifetime.start.p0(i64 8, ptr %10) #6
  %17 = load ptr, ptr %7, align 8, !tbaa !53
  %18 = getelementptr inbounds nuw %struct.Curl_easy, ptr %17, i32 0, i32 21
  %19 = getelementptr inbounds nuw %struct.UrlState, ptr %18, i32 0, i32 10
  %20 = load ptr, ptr %19, align 8, !tbaa !173
  store ptr %20, ptr %10, align 8, !tbaa !31
  call void @llvm.lifetime.start.p0(i64 8, ptr %11) #6
  %21 = load ptr, ptr %6, align 8, !tbaa !123
  %22 = call ptr @Curl_ssl_cf_get_primary_config(ptr noundef %21)
  store ptr %22, ptr %11, align 8, !tbaa !129
  call void @llvm.lifetime.start.p0(i64 8, ptr %12) #6
  store ptr null, ptr %12, align 8, !tbaa !33
  call void @llvm.lifetime.start.p0(i64 8, ptr %13) #6
  call void @llvm.lifetime.start.p0(i64 8, ptr %14) #6
  store ptr null, ptr %14, align 8, !tbaa !15
  call void @llvm.lifetime.start.p0(i64 4, ptr %15) #6
  %23 = load ptr, ptr %9, align 8, !tbaa !12
  store ptr null, ptr %23, align 8, !tbaa !15
  %24 = load ptr, ptr %10, align 8, !tbaa !31
  %25 = icmp ne ptr %24, null
  br i1 %25, label %27, label %26

26:                                               ; preds = %4
  store i32 0, ptr %5, align 4
  store i32 1, ptr %16, align 4
  br label %157

27:                                               ; preds = %4
  %28 = load ptr, ptr %7, align 8, !tbaa !53
  call void @Curl_ssl_scache_lock(ptr noundef %28)
  %29 = load ptr, ptr %7, align 8, !tbaa !53
  %30 = load ptr, ptr %10, align 8, !tbaa !31
  %31 = load ptr, ptr %8, align 8, !tbaa !3
  %32 = load ptr, ptr %11, align 8, !tbaa !129
  %33 = call i32 @cf_ssl_find_peer_by_key(ptr noundef %29, ptr noundef %30, ptr noundef %31, ptr noundef %32, ptr noundef %12)
  store i32 %33, ptr %15, align 4, !tbaa !10
  %34 = load i32, ptr %15, align 4, !tbaa !10
  %35 = icmp ne i32 %34, 0
  br i1 %35, label %60, label %36

36:                                               ; preds = %27
  %37 = load ptr, ptr %12, align 8, !tbaa !33
  %38 = icmp ne ptr %37, null
  br i1 %38, label %39, label %60

39:                                               ; preds = %36
  %40 = load ptr, ptr %12, align 8, !tbaa !33
  %41 = call i64 @time(ptr noundef null) #6
  call void @cf_scache_peer_remove_expired(ptr noundef %40, i64 noundef %41)
  %42 = load ptr, ptr %12, align 8, !tbaa !33
  %43 = getelementptr inbounds nuw %struct.Curl_ssl_scache_peer, ptr %42, i32 0, i32 4
  %44 = call ptr @Curl_llist_head(ptr noundef %43)
  store ptr %44, ptr %13, align 8, !tbaa !179
  %45 = load ptr, ptr %13, align 8, !tbaa !179
  %46 = icmp ne ptr %45, null
  br i1 %46, label %47, label %59

47:                                               ; preds = %39
  %48 = load ptr, ptr %13, align 8, !tbaa !179
  %49 = call ptr @Curl_node_take_elem(ptr noundef %48)
  store ptr %49, ptr %14, align 8, !tbaa !15
  %50 = load ptr, ptr %10, align 8, !tbaa !31
  %51 = getelementptr inbounds nuw %struct.Curl_ssl_scache, ptr %50, i32 0, i32 3
  %52 = load i64, ptr %51, align 8, !tbaa !39
  %53 = add nsw i64 %52, 1
  store i64 %53, ptr %51, align 8, !tbaa !39
  %54 = load ptr, ptr %10, align 8, !tbaa !31
  %55 = getelementptr inbounds nuw %struct.Curl_ssl_scache, ptr %54, i32 0, i32 3
  %56 = load i64, ptr %55, align 8, !tbaa !39
  %57 = load ptr, ptr %12, align 8, !tbaa !33
  %58 = getelementptr inbounds nuw %struct.Curl_ssl_scache_peer, ptr %57, i32 0, i32 10
  store i64 %56, ptr %58, align 8, !tbaa !52
  br label %59

59:                                               ; preds = %47, %39
  br label %60

60:                                               ; preds = %59, %36, %27
  %61 = load ptr, ptr %7, align 8, !tbaa !53
  call void @Curl_ssl_scache_unlock(ptr noundef %61)
  %62 = load ptr, ptr %14, align 8, !tbaa !15
  %63 = icmp ne ptr %62, null
  br i1 %63, label %64, label %119

64:                                               ; preds = %60
  %65 = load ptr, ptr %14, align 8, !tbaa !15
  %66 = load ptr, ptr %9, align 8, !tbaa !12
  store ptr %65, ptr %66, align 8, !tbaa !15
  br label %67

67:                                               ; preds = %64
  %68 = load ptr, ptr %7, align 8, !tbaa !53
  %69 = icmp ne ptr %68, null
  br i1 %69, label %70, label %116

70:                                               ; preds = %67
  %71 = load ptr, ptr %7, align 8, !tbaa !53
  %72 = getelementptr inbounds nuw %struct.Curl_easy, ptr %71, i32 0, i32 16
  %73 = getelementptr inbounds nuw %struct.UserDefined, ptr %72, i32 0, i32 119
  %74 = load i64, ptr %73, align 2
  %75 = lshr i64 %74, 31
  %76 = and i64 %75, 1
  %77 = trunc i64 %76 to i32
  %78 = icmp ne i32 %77, 0
  br i1 %78, label %79, label %116

79:                                               ; preds = %70
  %80 = load ptr, ptr %7, align 8, !tbaa !53
  %81 = getelementptr inbounds nuw %struct.Curl_easy, ptr %80, i32 0, i32 21
  %82 = getelementptr inbounds nuw %struct.UrlState, ptr %81, i32 0, i32 50
  %83 = load ptr, ptr %82, align 8, !tbaa !176
  %84 = icmp ne ptr %83, null
  br i1 %84, label %85, label %93

85:                                               ; preds = %79
  %86 = load ptr, ptr %7, align 8, !tbaa !53
  %87 = getelementptr inbounds nuw %struct.Curl_easy, ptr %86, i32 0, i32 21
  %88 = getelementptr inbounds nuw %struct.UrlState, ptr %87, i32 0, i32 50
  %89 = load ptr, ptr %88, align 8, !tbaa !176
  %90 = getelementptr inbounds nuw %struct.curl_trc_feat, ptr %89, i32 0, i32 1
  %91 = load i32, ptr %90, align 8, !tbaa !177
  %92 = icmp sge i32 %91, 1
  br i1 %92, label %93, label %116

93:                                               ; preds = %85, %79
  %94 = load i32, ptr getelementptr inbounds nuw (%struct.curl_trc_feat, ptr @Curl_trc_feat_ssls, i32 0, i32 1), align 8, !tbaa !177
  %95 = icmp sge i32 %94, 1
  br i1 %95, label %96, label %116

96:                                               ; preds = %93
  %97 = load ptr, ptr %7, align 8, !tbaa !53
  %98 = load ptr, ptr %8, align 8, !tbaa !3
  %99 = load ptr, ptr %14, align 8, !tbaa !15
  %100 = getelementptr inbounds nuw %struct.Curl_ssl_session, ptr %99, i32 0, i32 3
  %101 = load i32, ptr %100, align 8, !tbaa !17
  %102 = load ptr, ptr %14, align 8, !tbaa !15
  %103 = getelementptr inbounds nuw %struct.Curl_ssl_session, ptr %102, i32 0, i32 4
  %104 = load ptr, ptr %103, align 8, !tbaa !28
  %105 = load ptr, ptr %14, align 8, !tbaa !15
  %106 = getelementptr inbounds nuw %struct.Curl_ssl_session, ptr %105, i32 0, i32 5
  %107 = load i64, ptr %106, align 8, !tbaa !23
  %108 = load ptr, ptr %14, align 8, !tbaa !15
  %109 = getelementptr inbounds nuw %struct.Curl_ssl_session, ptr %108, i32 0, i32 6
  %110 = load ptr, ptr %109, align 8, !tbaa !26
  %111 = icmp ne ptr %110, null
  %112 = select i1 %111, ptr @.str.27, ptr @.str.28
  %113 = load ptr, ptr %12, align 8, !tbaa !33
  %114 = getelementptr inbounds nuw %struct.Curl_ssl_scache_peer, ptr %113, i32 0, i32 4
  %115 = call i64 @Curl_llist_count(ptr noundef %114)
  call void (ptr, ptr, ...) @Curl_trc_ssls(ptr noundef %97, ptr noundef @.str.26, ptr noundef %98, i32 noundef %101, ptr noundef %104, i64 noundef %107, ptr noundef %112, i64 noundef %115)
  br label %116

116:                                              ; preds = %96, %93, %85, %70, %67
  br label %117

117:                                              ; preds = %116
  br label %118

118:                                              ; preds = %117
  br label %155

119:                                              ; preds = %60
  br label %120

120:                                              ; preds = %119
  %121 = load ptr, ptr %7, align 8, !tbaa !53
  %122 = icmp ne ptr %121, null
  br i1 %122, label %123, label %152

123:                                              ; preds = %120
  %124 = load ptr, ptr %7, align 8, !tbaa !53
  %125 = getelementptr inbounds nuw %struct.Curl_easy, ptr %124, i32 0, i32 16
  %126 = getelementptr inbounds nuw %struct.UserDefined, ptr %125, i32 0, i32 119
  %127 = load i64, ptr %126, align 2
  %128 = lshr i64 %127, 31
  %129 = and i64 %128, 1
  %130 = trunc i64 %129 to i32
  %131 = icmp ne i32 %130, 0
  br i1 %131, label %132, label %152

132:                                              ; preds = %123
  %133 = load ptr, ptr %7, align 8, !tbaa !53
  %134 = getelementptr inbounds nuw %struct.Curl_easy, ptr %133, i32 0, i32 21
  %135 = getelementptr inbounds nuw %struct.UrlState, ptr %134, i32 0, i32 50
  %136 = load ptr, ptr %135, align 8, !tbaa !176
  %137 = icmp ne ptr %136, null
  br i1 %137, label %138, label %146

138:                                              ; preds = %132
  %139 = load ptr, ptr %7, align 8, !tbaa !53
  %140 = getelementptr inbounds nuw %struct.Curl_easy, ptr %139, i32 0, i32 21
  %141 = getelementptr inbounds nuw %struct.UrlState, ptr %140, i32 0, i32 50
  %142 = load ptr, ptr %141, align 8, !tbaa !176
  %143 = getelementptr inbounds nuw %struct.curl_trc_feat, ptr %142, i32 0, i32 1
  %144 = load i32, ptr %143, align 8, !tbaa !177
  %145 = icmp sge i32 %144, 1
  br i1 %145, label %146, label %152

146:                                              ; preds = %138, %132
  %147 = load i32, ptr getelementptr inbounds nuw (%struct.curl_trc_feat, ptr @Curl_trc_feat_ssls, i32 0, i32 1), align 8, !tbaa !177
  %148 = icmp sge i32 %147, 1
  br i1 %148, label %149, label %152

149:                                              ; preds = %146
  %150 = load ptr, ptr %7, align 8, !tbaa !53
  %151 = load ptr, ptr %8, align 8, !tbaa !3
  call void (ptr, ptr, ...) @Curl_trc_ssls(ptr noundef %150, ptr noundef @.str.29, ptr noundef %151)
  br label %152

152:                                              ; preds = %149, %146, %138, %123, %120
  br label %153

153:                                              ; preds = %152
  br label %154

154:                                              ; preds = %153
  br label %155

155:                                              ; preds = %154, %118
  %156 = load i32, ptr %15, align 4, !tbaa !10
  store i32 %156, ptr %5, align 4
  store i32 1, ptr %16, align 4
  br label %157

157:                                              ; preds = %155, %26
  call void @llvm.lifetime.end.p0(i64 4, ptr %15) #6
  call void @llvm.lifetime.end.p0(i64 8, ptr %14) #6
  call void @llvm.lifetime.end.p0(i64 8, ptr %13) #6
  call void @llvm.lifetime.end.p0(i64 8, ptr %12) #6
  call void @llvm.lifetime.end.p0(i64 8, ptr %11) #6
  call void @llvm.lifetime.end.p0(i64 8, ptr %10) #6
  %158 = load i32, ptr %5, align 4
  ret i32 %158
}