; Function Attrs: nounwind uwtable
define hidden i32 @Curl_ssl_scache_take(ptr noundef %0, ptr noundef %1, ptr noundef %2, ptr noundef writeonly captures(none) initializes((0, 8)) %3) local_unnamed_addr #0 {
  %5 = alloca ptr, align 8
  %6 = getelementptr inbounds nuw i8, ptr %1, i64 3232
  %7 = load ptr, ptr %6, align 8, !tbaa !155
  %8 = tail call ptr @Curl_ssl_cf_get_primary_config(ptr noundef %0) #9
  call void @llvm.lifetime.start.p0(i64 8, ptr nonnull %5) #9
  store ptr null, ptr %3, align 8, !tbaa !7
  %.not = icmp eq ptr %7, null
  br i1 %.not, label %81, label %9

9:                                                ; preds = %4
  %10 = getelementptr inbounds nuw i8, ptr %1, i64 224
  %11 = load ptr, ptr %10, align 8, !tbaa !45
  %.not.i = icmp eq ptr %11, null
  br i1 %.not.i, label %Curl_ssl_scache_lock.exit, label %12

12:                                               ; preds = %9
  %13 = getelementptr inbounds nuw i8, ptr %11, i64 4
  %14 = load i32, ptr %13, align 4, !tbaa !106
  %15 = and i32 %14, 16
  %.not3.i = icmp eq i32 %15, 0
  br i1 %.not3.i, label %Curl_ssl_scache_lock.exit, label %16

16:                                               ; preds = %12
  %17 = tail call i32 @Curl_share_lock(ptr noundef nonnull %1, i32 noundef 4, i32 noundef 2) #9
  br label %Curl_ssl_scache_lock.exit

Curl_ssl_scache_lock.exit:                        ; preds = %9, %12, %16
  %18 = call fastcc i32 @cf_ssl_find_peer_by_key(ptr noundef nonnull %1, ptr noundef nonnull %7, ptr noundef %2, ptr noundef %8, ptr noundef %5)
  %19 = icmp eq i32 %18, 0
  %20 = load ptr, ptr %5, align 8
  %21 = icmp ne ptr %20, null
  %or.cond = select i1 %19, i1 %21, i1 false
  br i1 %or.cond, label %22, label %32

22:                                               ; preds = %Curl_ssl_scache_lock.exit
  %23 = tail call i64 @time(ptr noundef null) #9
  tail call fastcc void @cf_scache_peer_remove_expired(ptr noundef %20, i64 noundef %23)
  %24 = getelementptr inbounds nuw i8, ptr %20, i64 32
  %25 = tail call ptr @Curl_llist_head(ptr noundef nonnull %24) #9
  %.not48 = icmp eq ptr %25, null
  br i1 %.not48, label %32, label %26

26:                                               ; preds = %22
  %27 = tail call ptr @Curl_node_take_elem(ptr noundef nonnull %25) #9
  %28 = getelementptr inbounds nuw i8, ptr %7, i64 24
  %29 = load i64, ptr %28, align 8, !tbaa !31
  %30 = add nsw i64 %29, 1
  store i64 %30, ptr %28, align 8, !tbaa !31
  %31 = getelementptr inbounds nuw i8, ptr %20, i64 152
  store i64 %30, ptr %31, align 8, !tbaa !43
  br label %32

32:                                               ; preds = %22, %26, %Curl_ssl_scache_lock.exit
  %.041 = phi ptr [ %27, %26 ], [ null, %22 ], [ null, %Curl_ssl_scache_lock.exit ]
  %33 = load ptr, ptr %10, align 8, !tbaa !45
  %.not.i57 = icmp eq ptr %33, null
  br i1 %.not.i57, label %Curl_ssl_scache_unlock.exit, label %34

34:                                               ; preds = %32
  %35 = getelementptr inbounds nuw i8, ptr %33, i64 4
  %36 = load i32, ptr %35, align 4, !tbaa !106
  %37 = and i32 %36, 16
  %.not3.i58 = icmp eq i32 %37, 0
  br i1 %.not3.i58, label %Curl_ssl_scache_unlock.exit, label %38

38:                                               ; preds = %34
  %39 = tail call i32 @Curl_share_unlock(ptr noundef nonnull %1, i32 noundef 4) #9
  br label %Curl_ssl_scache_unlock.exit

Curl_ssl_scache_unlock.exit:                      ; preds = %32, %34, %38
  %.not49 = icmp eq ptr %.041, null
  br i1 %.not49, label %66, label %40

40:                                               ; preds = %Curl_ssl_scache_unlock.exit
  store ptr %.041, ptr %3, align 8, !tbaa !7
  %41 = getelementptr inbounds nuw i8, ptr %1, i64 2658
  %42 = load i64, ptr %41, align 2
  %43 = and i64 %42, 2147483648
  %.not54 = icmp eq i64 %43, 0
  br i1 %.not54, label %81, label %44

44:                                               ; preds = %40
  %45 = getelementptr inbounds nuw i8, ptr %1, i64 4864
  %46 = load ptr, ptr %45, align 8, !tbaa !156
  %.not55 = icmp eq ptr %46, null
  br i1 %.not55, label %53, label %47

47:                                               ; preds = %44
  %48 = getelementptr inbounds nuw i8, ptr %46, i64 8
  %49 = load i32, ptr %48, align 8, !tbaa !157
  %50 = icmp sgt i32 %49, 0
  %51 = load i32, ptr getelementptr inbounds nuw (i8, ptr @Curl_trc_feat_ssls, i64 8), align 8
  %52 = icmp sgt i32 %51, 0
  %or.cond3 = select i1 %50, i1 %52, i1 false
  br i1 %or.cond3, label %54, label %81

53:                                               ; preds = %44
  %.old = load i32, ptr getelementptr inbounds nuw (i8, ptr @Curl_trc_feat_ssls, i64 8), align 8, !tbaa !157
  %.old2 = icmp sgt i32 %.old, 0
  br i1 %.old2, label %54, label %81

54:                                               ; preds = %47, %53
  %55 = getelementptr inbounds nuw i8, ptr %.041, i64 24
  %56 = load i32, ptr %55, align 8, !tbaa !9
  %57 = getelementptr inbounds nuw i8, ptr %.041, i64 32
  %58 = load ptr, ptr %57, align 8, !tbaa !21
  %59 = getelementptr inbounds nuw i8, ptr %.041, i64 40
  %60 = load i64, ptr %59, align 8, !tbaa !18
  %61 = getelementptr inbounds nuw i8, ptr %.041, i64 48
  %62 = load ptr, ptr %61, align 8, !tbaa !22
  %.not56 = icmp eq ptr %62, null
  %63 = select i1 %.not56, ptr @.str.28, ptr @.str.27
  %64 = getelementptr inbounds nuw i8, ptr %20, i64 32
  %65 = tail call i64 @Curl_llist_count(ptr noundef nonnull %64) #9
  tail call void (ptr, ptr, ...) @Curl_trc_ssls(ptr noundef nonnull %1, ptr noundef nonnull @.str.26, ptr noundef %2, i32 noundef %56, ptr noundef %58, i64 noundef %60, ptr noundef nonnull %63, i64 noundef %65) #9
  br label %81

66:                                               ; preds = %Curl_ssl_scache_unlock.exit
  %67 = getelementptr inbounds nuw i8, ptr %1, i64 2658
  %68 = load i64, ptr %67, align 2
  %69 = and i64 %68, 2147483648
  %.not51 = icmp eq i64 %69, 0
  br i1 %.not51, label %81, label %70

70:                                               ; preds = %66
  %71 = getelementptr inbounds nuw i8, ptr %1, i64 4864
  %72 = load ptr, ptr %71, align 8, !tbaa !156
  %.not52 = icmp eq ptr %72, null
  br i1 %.not52, label %79, label %73

73:                                               ; preds = %70
  %74 = getelementptr inbounds nuw i8, ptr %72, i64 8
  %75 = load i32, ptr %74, align 8, !tbaa !157
  %76 = icmp sgt i32 %75, 0
  %77 = load i32, ptr getelementptr inbounds nuw (i8, ptr @Curl_trc_feat_ssls, i64 8), align 8
  %78 = icmp sgt i32 %77, 0
  %or.cond6 = select i1 %76, i1 %78, i1 false
  br i1 %or.cond6, label %80, label %81

79:                                               ; preds = %70
  %.old4 = load i32, ptr getelementptr inbounds nuw (i8, ptr @Curl_trc_feat_ssls, i64 8), align 8, !tbaa !157
  %.old5 = icmp sgt i32 %.old4, 0
  br i1 %.old5, label %80, label %81

80:                                               ; preds = %73, %79
  tail call void (ptr, ptr, ...) @Curl_trc_ssls(ptr noundef nonnull %1, ptr noundef nonnull @.str.29, ptr noundef %2) #9
  br label %81

81:                                               ; preds = %54, %53, %47, %40, %80, %79, %73, %66, %4
  %.0 = phi i32 [ 0, %4 ], [ %18, %66 ], [ %18, %73 ], [ %18, %79 ], [ %18, %80 ], [ %18, %40 ], [ %18, %47 ], [ %18, %53 ], [ %18, %54 ]
  call void @llvm.lifetime.end.p0(i64 8, ptr nonnull %5) #9
  ret i32 %.0
}